(dp0
S'edc'
p1
I18
sS'doitt'
p2
I15
sS'mova'
p3
I25
sS'dcas'
p4
I22
sS'dfta'
p5
I10
sS'tlc'
p6
I20
sS'ccrb'
p7
I30
sS'nycooa'
p8
I31
sS'dsny'
p9
I32
sS'ops'
p10
I34
sS'moftb'
p11
I19
sS'nycha'
p12
I23
sS'mopd'
p13
I36
sS'fdny'
p14
I37
sS'ajc'
p15
I5
sS'hra'
p16
I12
sS'law'
p17
I38
sS'hpd'
p18
I28
sS'dohmh'
p19
I33
sS'nycem'
p20
I14
sS'dhs'
p21
I26
sS'dca'
p22
I16
sS'fund'
p23
I21
sS'ocme'
p24
I8
sS'opa'
p25
I35
sS'moia'
p26
I0
sS'nypd'
p27
I13
sS'nycppf'
p28
I27
sS'3/1/01'
p29
I29
sS'dpr'
p30
I1
sS'dep'
p31
I2
sS'doc'
p32
I3
sS'dof'
p33
I4
sS'doe'
p34
I6
sS'acs'
p35
I7
sS'dob'
p36
I17
sS'chall'
p37
I24
sS'dop'
p38
I9
sS'oath'
p39
I39
sS'dot'
p40
I11
s.