(dp0
S''
p1
I0
sS'55344'
p2
I1
sS'10453'
p3
I2
sS'10452'
p4
I3
sS'10451'
p5
I4
sS'10457'
p6
I5
sS'10456'
p7
I6
sS'10455'
p8
I7
sS'10454'
p9
I8
sS'NYC'
p10
I9
sS'10459'
p11
I10
sS'10458'
p12
I11
sS'10103'
p13
I12
sS'7302'
p14
I13
sS'7306'
p15
I14
sS'11385'
p16
I15
sS'7304'
p17
I16
sS'10580'
p18
I66
sS'10583'
p19
I18
sS'19407'
p20
I19
sS'19154'
p21
I20
sS'714'
p22
I21
sS'14218'
p23
I22
sS'7047'
p24
I23
sS'11542'
p25
I91
sS'10960'
p26
I25
sS'10804'
p27
I26
sS'10805'
p28
I27
sS'10801'
p29
I28
sS'10803'
p30
I29
sS'99999'
p31
I30
sS'60018-4501'
p32
I31
sS'10107'
p33
I32
sS'7631'
p34
I33
sS'10708'
p35
I34
sS'10703'
p36
I35
sS'10701'
p37
I36
sS'10705'
p38
I37
sS'10704'
p39
I38
sS'7901'
p40
I39
sS'7307'
p41
I40
sS'11003'
p42
I41
sS'8457'
p43
I428
sS'11001'
p44
I43
sS'11005'
p45
I45
sS'11004'
p46
I46
sS'55127'
p47
I47
sS'11612'
p48
I48
sS'11216'
p49
I432
sS'11217'
p50
I433
sS'11949'
p51
I51
sS'11561-4717'
p52
I53
sS'11345'
p53
I54
sS'10028'
p54
I55
sS'11343'
p55
I97
sS'10026'
p56
I57
sS'10027'
p57
I58
sS'10024'
p58
I59
sS'11224'
p59
I60
sS'10022'
p60
I61
sS'10037'
p61
I52
sS'10020'
p62
I63
sS'10021'
p63
I64
sS'10036'
p64
I439
sS'0'
p65
I17
sS'19053'
p66
I67
sS'10030'
p67
I441
sS'7410'
p68
I69
sS'61702'
p69
I70
sS'11553-1423'
p70
I71
sS'N/A'
p71
I72
sS'10009'
p72
I347
sS'10561'
p73
I74
sS'6610'
p74
I75
sS'10566'
p75
I76
sS'7003'
p76
I77
sS'10096'
p77
I78
sS'11530'
p78
I79
sS'44333'
p79
I80
sS'30328'
p80
I81
sS'07101-4523'
p81
I82
sS'7677'
p82
I83
sS'7077'
p83
I84
sS'7071'
p84
I85
sS'7073'
p85
I86
sS'32750'
p86
I103
sS'23502'
p87
I88
sS'11040'
p88
I89
sS'32255-1268'
p89
I90
sS'111111'
p90
I92
sS'11710'
p91
I93
sS'11716'
p92
I94
sS'8648'
p93
I210
sS'11714'
p94
I96
sS'07030-5774'
p95
I98
sS'10065'
p96
I99
sS'10069'
p97
I100
sS'8544'
p98
I101
sS'24'
p99
I102
sS'1'
p100
I87
sS'7450'
p101
I104
sS'91367'
p102
I105
sS'29616'
p103
I106
sS'11222'
p104
I420
sS'10306'
p105
I107
sS'11804-9005'
p106
I108
sS'02250-5126'
p107
I109
sS'33486'
p108
I110
sS'10522'
p109
I111
sS'35209'
p110
I112
sS'10282'
p111
I113
sS'10280'
p112
I114
sS'10281'
p113
I115
sS'10119'
p114
I116
sS'11577'
p115
I117
sS'11575'
p116
I118
sS'10112'
p117
I119
sS'11572'
p118
I120
sS'11570'
p119
I121
sS'78246'
p120
I122
sS'11379'
p121
I123
sS'11378'
p122
I124
sS'8876'
p123
I125
sS'11375'
p124
I126
sS'11374'
p125
I127
sS'11377'
p126
I128
sS'11371'
p127
I129
sS'7310'
p128
I130
sS'11373'
p129
I131
sS'11372'
p130
I132
sS'92649'
p131
I133
sS'6851'
p132
I134
sS'7030'
p133
I135
sS'7033'
p134
I137
sS'14202'
p135
I138
sS'83'
p136
I139
sS'10977'
p137
I140
sS'19702'
p138
I141
sS'32896-5033'
p139
I142
sS'78758'
p140
I143
sS'84130281'
p141
I145
sS'11757'
p142
I146
sS'11756'
p143
I147
sS'11753'
p144
I148
sS'11550'
p145
I353
sS'7144'
p146
I150
sS'11697'
p147
I151
sS'11694'
p148
I152
sS'11695'
p149
I153
sS'11692'
p150
I154
sS'11693'
p151
I155
sS'11691'
p152
I156
sS'11552'
p153
I355
sS'11590'
p154
I158
sS'11507'
p155
I464
sS'10462'
p156
I356
sS'187739500'
p157
I161
sS'11598'
p158
I162
sS'10463'
p159
I357
sS'2459'
p160
I164
sS'11557'
p161
I358
sS'10309'
p162
I166
sS'10308'
p163
I167
sS'10307'
p164
I168
sS'UNKNOWN'
p165
I169
sS'10305'
p166
I170
sS'10304'
p167
I171
sS'10303'
p168
I172
sS'10302'
p169
I173
sS'10301'
p170
I174
sS'43218'
p171
I459
sS'01757-2821'
p172
I175
sS'43218-2273'
p173
I176
sS'7981'
p174
I177
sS'11725-5710'
p175
I363
sS'91324'
p176
I179
sS'10153'
p177
I180
sS'NEW JERSEY'
p178
I181
sS'11238'
p179
I182
sS'11239'
p180
I183
sS'10510'
p181
I186
sS'10018'
p182
I185
sS'10013'
p183
I230
sS'11231'
p184
I231
sS'10011'
p185
I189
sS'10010'
p186
I233
sS'10017'
p187
I235
sS'10016'
p188
I236
sS'11236'
p189
I193
sS'11237'
p190
I238
sS'11201'
p191
I258
sS'11203'
p192
I260
sS'17111-1036'
p193
I197
sS'70120'
p194
I198
sS'10475'
p195
I199
sS'10123'
p196
I200
sS'10471'
p197
I201
sS'10470'
p198
I202
sS'10473'
p199
I203
sS'10122'
p200
I144
sS'14221'
p201
I453
sS'10573'
p202
I205
sS'11249'
p203
I206
sS'11241'
p204
I207
sS'11242'
p205
I208
sS'37067'
p206
I209
sS'11101-6122'
p207
I95
sS'23707'
p208
I438
sS'7102'
p209
I211
sS'7104'
p210
I212
sS'7105'
p211
I213
sS'7661'
p212
I214
sS'7660'
p213
I215
sS'7666'
p214
I216
sS'11411'
p215
I217
sS'11412'
p216
I218
sS'11413'
p217
I219
sS'11414'
p218
I220
sS'11415'
p219
I221
sS'11416'
p220
I222
sS'11417'
p221
I223
sS'11793'
p222
I224
sS'7066'
p223
I225
sS'11797'
p224
I226
sS'10019'
p225
I184
sS'71114'
p226
I227
sS'98335'
p227
I228
sS'11050'
p228
I229
sS'11230'
p229
I187
sS'10012'
p230
I188
sS'11232'
p231
I232
sS'11233'
p232
I190
sS'11111'
p233
I234
sS'11234'
p234
I191
sS'11235'
p235
I192
sS'7193'
p236
I237
sS'10014'
p237
I194
sS'11701'
p238
I239
sS'11702'
p239
I240
sS'NJ 07114'
p240
I241
sS'30901'
p241
I243
sS'8535'
p242
I244
sS'7440'
p243
I245
sS'11021'
p244
I246
sS'11020'
p245
I247
sS'11797-9004'
p246
I248
sS'7086'
p247
I474
sS'29601'
p248
I250
sS'13490'
p249
I251
sS'15262-2001'
p250
I252
sS'7726'
p251
I253
sS'10536'
p252
I254
sS'11803'
p253
I255
sS'11802'
p254
I256
sS'11801'
p255
I257
sS'11568'
p256
I195
sS'11569'
p257
I259
sS'10129'
p258
I196
sS'10128'
p259
I261
sS'11205'
p260
I262
sS'11204'
p261
I263
sS'11207'
p262
I264
sS'11206'
p263
I265
sS'11209'
p264
I266
sS'11208'
p265
I204
sS'11563'
p266
I268
sS'11565'
p267
I269
sS'11566'
p268
I270
sS'NONE'
p269
I271
sS'11368'
p270
I272
sS'11369'
p271
I273
sS'11366'
p272
I274
sS'11367'
p273
I275
sS'11364'
p274
I276
sS'11365'
p275
I277
sS'11362'
p276
I278
sS'11363'
p277
I279
sS'11360'
p278
I280
sS'11361'
p279
I281
sS'55423'
p280
I282
sS'7438'
p281
I283
sS'6820'
p282
I284
sS'92821-6753'
p283
I285
sS'29616-0759'
p284
I286
sS'12917'
p285
I287
sS'11432'
p286
I477
sS'7020'
p287
I289
sS'7026'
p288
I290
sS'7024'
p289
I291
sS'29732'
p290
I292
sS'48195-0969'
p291
I293
sS'29737'
p292
I294
sS'11514'
p293
I295
sS'11516'
p294
I296
sS'11510'
p295
I297
sS'10983'
p296
I298
sS'8816'
p297
I299
sS'32255'
p298
I300
sS'32256'
p299
I301
sS'85283-4583'
p300
I302
sS'40269'
p301
I303
sS'31405-1441'
p302
I304
sS'95032'
p303
I305
sS'7652'
p304
I306
sS'14304'
p305
I307
sS'7094'
p306
I308
sS'2205'
p307
I309
sS'11746'
p308
I310
sS'11747'
p309
I311
sS'11749'
p310
I312
sS'NOT SURE'
p311
I313
sS'94524'
p312
I314
sS'11429'
p313
I315
sS'11428'
p314
I316
sS'11370'
p315
I407
sS'11580'
p316
I317
sS'11581'
p317
I318
sS'11421'
p318
I319
sS'11420'
p319
I320
sS'11423'
p320
I321
sS'11422'
p321
I322
sS'11427'
p322
I323
sS'11426'
p323
I324
sS'98230'
p324
I325
sS'7920'
p325
I326
sS'10310'
p326
I327
sS'10312'
p327
I328
sS'10314'
p328
I329
sS'296160759'
p329
I331
sS'92562'
p330
I332
sS'91311'
p331
I333
sS'10474'
p332
I334
sS'11735'
p333
I335
sS'11738'
p334
I336
sS'10004'
p335
I337
sS'10005'
p336
I338
sS'10006'
p337
I339
sS'10007'
p338
I340
sS'10000'
p339
I341
sS'10001'
p340
I342
sS'10002'
p341
I343
sS'10003'
p342
I344
sS'10472'
p343
I345
sS'10163'
p344
I346
sS'10162'
p345
I73
sS'75074'
p346
I348
sS'20791'
p347
I349
sS'7207'
p348
I350
sS'7206'
p349
I351
sS'10466'
p350
I352
sS'10467'
p351
I149
sS'10464'
p352
I330
sS'10465'
p353
I157
sS'78265-9705'
p354
I160
sS'11554'
p355
I163
sS'10460'
p356
I165
sS'10461'
p357
I359
sS'11559'
p358
I360
sS'95762'
p359
I361
sS'10505'
p360
I362
sS'10468'
p361
I178
sS'10469'
p362
I364
sS'11251'
p363
I365
sS'10526'
p364
I366
sS'8854'
p365
I367
sS'56303-9817'
p366
I368
sS'12590-8900'
p367
I369
sS'11784'
p368
I370
sS'7110'
p369
I371
sS'11780'
p370
I372
sS'7115'
p371
I373
sS'7114'
p372
I374
sS'11561'
p373
I267
sS'11788'
p374
I375
sS'12071'
p375
I376
sS'6870'
p376
I377
sS'1111'
p377
I489
sS'7054'
p378
I379
sS'NEWARK'
p379
I380
sS'10111'
p380
I381
sS'10956'
p381
I382
sS'10029'
p382
I404
sS'89703'
p383
I383
sS'49503'
p384
I384
sS'7650'
p385
I385
sS'11109'
p386
I386
sS'11102'
p387
I387
sS'11103'
p388
I388
sS'60630-2534'
p389
I389
sS'11101'
p390
I390
sS'7603'
p391
I24
sS'R3B0C9'
p392
I44
sS'11104'
p393
I393
sS'11105'
p394
I394
sS'11779'
p395
I395
sS'11778'
p396
I396
sS'10272-0992'
p397
I493
sS'7605'
p398
I398
sS'11776'
p399
I399
sS'11553'
p400
I354
sS'11229'
p401
I401
sS'10040'
p402
I402
sS'11106'
p403
I391
sS'11228'
p404
I56
sS'10044'
p405
I405
sS'35043'
p406
I406
sS'2494'
p407
I392
sS'6905'
p408
I408
sS'116'
p409
I409
sS'6902'
p410
I410
sS'6901'
p411
I411
sS'11226'
p412
I412
sS'7974'
p413
I413
sS'8520'
p414
I414
sS'11225'
p415
I415
sS'10025'
p416
I416
sS'11030'
p417
I417
sS'11223'
p418
I418
sS'57107-0145'
p419
I419
sS'10023'
p420
I62
sS'10603'
p421
I421
sS'10601'
p422
I422
sS'11221'
p423
I423
sS'11220'
p424
I424
sS'14043'
p425
I425
sS'11742'
p426
I426
sS'22222'
p427
I427
sS'11212'
p428
I42
sS'11213'
p429
I429
sS'11210'
p430
I430
sS'11211'
p431
I431
sS'10039'
p432
I49
sS'10038'
p433
I50
sS'11214'
p434
I434
sS'11215'
p435
I435
sS'10035'
p436
I436
sS'10034'
p437
I437
sS'11218'
p438
I242
sS'11219'
p439
I65
sS'10031'
p440
I440
sS'18773-4200'
p441
I68
sS'10033'
p442
I442
sS'10032'
p443
I443
sS'11359'
p444
I444
sS'11358'
p445
I445
sS'32801'
p446
I446
sS'11357'
p447
I447
sS'11356'
p448
I448
sS'11355'
p449
I449
sS'11354'
p450
I450
sS'92584'
p451
I451
sS'92626'
p452
I452
sS'10048'
p453
I400
sS'6830'
p454
I454
sS'7108'
p455
I455
sS'10553'
p456
I456
sS'10550'
p457
I457
sS'77004'
p458
I458
sS'7016'
p459
I136
sS'7017'
p460
I460
sS'7014'
p461
I461
sS'7010'
p462
I462
sS'11509'
p463
I463
sS'NA'
p464
I159
sS'11501'
p465
I465
sS'32241'
p466
I466
sS'10041'
p467
I403
sS'60555'
p468
I467
sS'14206-2317'
p469
I468
sS'43001'
p470
I469
sS'31405'
p471
I470
sS'98124'
p472
I471
sS'7646'
p473
I472
sS'7087'
p474
I473
sS'NOT KNOWN'
p475
I249
sS'11418'
p476
I475
sS'11419'
p477
I476
sS'98057'
p478
I288
sS'11433'
p479
I478
sS'11430'
p480
I479
sS'11436'
p481
I480
sS'11434'
p482
I481
sS'11435'
p483
I482
sS'7932'
p484
I483
sS'17104'
p485
I484
sS'17108'
p486
I485
sS'3003079'
p487
I486
sS'7039'
p488
I487
sS'62002'
p489
I488
sS'11726'
p490
I378
sS'11725'
p491
I490
sS'11721'
p492
I491
sS'91716'
p493
I492
sS'11729'
p494
I397
sS'10075'
p495
I494
sS'8003'
p496
I495
sS'01888-4133'
p497
I496
s.